target datalayout = "e-m:e-p270:32:32-p271:32:32-p272:64:64-i64:64-i128:128-f80:128-n8:16:32:64-S128"
target triple = "x86_64-pc-linux-gnu"

%struct.RBasic = type { i64, i64 }
%struct.RData = type { %struct.RBasic, ptr, ptr, ptr }
%struct.rb_proc_t = type { %struct.rb_block, i8 }
%struct.rb_block = type { %union.anon.12, i32 }
%union.anon.12 = type { %struct.rb_captured_block }
%struct.rb_captured_block = type { i64, ptr, %union.anon.13 }
%union.anon.13 = type { ptr }
%struct.rb_execution_context_struct = type { ptr, i64, ptr, ptr, i32, i32, ptr, ptr, ptr, i64, i64, i64, ptr, i64, ptr, i64, i64, i8, i8, i64, %struct.anon.7 }
%struct.anon.7 = type { ptr, ptr, i64, [1 x %struct.__jmp_buf_tag] }
%struct.__jmp_buf_tag = type { [8 x i64], i32, %struct.__sigset_t }
%struct.__sigset_t = type { [16 x i64] }
%struct.vm_ifunc_argc = type { i32, i32 }
%struct.vm_ifunc = type { i64, ptr, ptr, ptr, %struct.vm_ifunc_argc }

@rb_eArgError = external global i64, align 8
@.str.3 = private unnamed_addr constant [15 x i8] c"no block given\00", align 1
@ruby_current_ec = external thread_local global ptr, align 8

; Function Attrs: inlinehint nounwind sspstrong willreturn memory(none) uwtable
define internal zeroext i1 @RB_IMMEDIATE_P(i64 noundef %0) #12 {
  %2 = alloca i64, align 8
  store i64 %0, ptr %2, align 8, !tbaa !7
  %3 = load i64, ptr %2, align 8, !tbaa !7
  %4 = and i64 %3, 7
  %5 = icmp ne i64 %4, 0
  ret i1 %5
}

; Function Attrs: inlinehint nounwind sspstrong willreturn memory(read) uwtable
define internal i32 @RB_BUILTIN_TYPE(i64 noundef %0) #7 {
  %2 = alloca i64, align 8
  %3 = alloca i64, align 8
  store i64 %0, ptr %2, align 8, !tbaa !7
  call void @llvm.lifetime.start.p0(i64 8, ptr %3) #25
  %4 = load i64, ptr %2, align 8, !tbaa !7
  %5 = inttoptr i64 %4 to ptr
  %6 = getelementptr inbounds nuw %struct.RBasic, ptr %5, i32 0, i32 0
  %7 = load i64, ptr %6, align 8, !tbaa !89
  %8 = and i64 %7, 31
  store i64 %8, ptr %3, align 8, !tbaa !7
  %9 = load i64, ptr %3, align 8, !tbaa !7
  %10 = trunc i64 %9 to i32
  call void @llvm.lifetime.end.p0(i64 8, ptr %3) #25
  ret i32 %10
}

; Function Attrs: inlinehint nounwind sspstrong willreturn memory(none) uwtable
define internal zeroext i1 @RB_SPECIAL_CONST_P(i64 noundef %0) #12 {
  %2 = alloca i64, align 8
  store i64 %0, ptr %2, align 8, !tbaa !7
  %3 = load i64, ptr %2, align 8, !tbaa !7
  %4 = icmp eq i64 %3, 0
  br i1 %4, label %8, label %5

5:                                                ; preds = %1
  %6 = load i64, ptr %2, align 8, !tbaa !7
  %7 = call zeroext i1 @RB_IMMEDIATE_P(i64 noundef %6) #29
  br label %8

8:                                                ; preds = %5, %1
  %9 = phi i1 [ true, %1 ], [ %7, %5 ]
  ret i1 %9
}

; Function Attrs: inlinehint nounwind sspstrong willreturn memory(read) uwtable
define internal zeroext i1 @RB_DYNAMIC_SYM_P(i64 noundef %0) #7 {
  %2 = alloca i1, align 1
  %3 = alloca i64, align 8
  store i64 %0, ptr %3, align 8, !tbaa !7
  %4 = load i64, ptr %3, align 8, !tbaa !7
  %5 = call zeroext i1 @RB_SPECIAL_CONST_P(i64 noundef %4) #29
  br i1 %5, label %6, label %7

6:                                                ; preds = %1
  store i1 false, ptr %2, align 1
  br label %11

7:                                                ; preds = %1
  %8 = load i64, ptr %3, align 8, !tbaa !7
  %9 = call i32 @RB_BUILTIN_TYPE(i64 noundef %8) #28
  %10 = icmp eq i32 %9, 20
  store i1 %10, ptr %2, align 1
  br label %11

11:                                               ; preds = %7, %6
  %12 = load i1, ptr %2, align 1
  ret i1 %12
}

; Function Attrs: inlinehint nounwind sspstrong willreturn memory(none) uwtable
define internal zeroext i1 @RB_STATIC_SYM_P(i64 noundef %0) #12 {
  %2 = alloca i64, align 8
  %3 = alloca i64, align 8
  store i64 %0, ptr %2, align 8, !tbaa !7
  call void @llvm.lifetime.start.p0(i64 8, ptr %3) #25
  store i64 255, ptr %3, align 8, !tbaa !7
  %4 = load i64, ptr %2, align 8, !tbaa !7
  %5 = and i64 %4, 255
  %6 = icmp eq i64 %5, 12
  call void @llvm.lifetime.end.p0(i64 8, ptr %3) #25
  ret i1 %6
}

; Function Attrs: inlinehint nounwind sspstrong willreturn memory(read) uwtable
define internal zeroext i1 @RB_SYMBOL_P(i64 noundef %0) #7 {
  %2 = alloca i64, align 8
  store i64 %0, ptr %2, align 8, !tbaa !7
  %3 = load i64, ptr %2, align 8, !tbaa !7
  %4 = call zeroext i1 @RB_STATIC_SYM_P(i64 noundef %3) #29
  br i1 %4, label %8, label %5

5:                                                ; preds = %1
  %6 = load i64, ptr %2, align 8, !tbaa !7
  %7 = call zeroext i1 @RB_DYNAMIC_SYM_P(i64 noundef %6) #28
  br label %8

8:                                                ; preds = %5, %1
  %9 = phi i1 [ true, %1 ], [ %7, %5 ]
  ret i1 %9
}

; Function Attrs: inlinehint nounwind sspstrong uwtable
define internal i32 @VM_BH_IFUNC_P(i64 noundef %0) #3 {
  %2 = alloca i32, align 4
  %3 = alloca i64, align 8
  store i64 %0, ptr %3, align 8, !tbaa !7
  %4 = load i64, ptr %3, align 8, !tbaa !7
  %5 = and i64 %4, 3
  %6 = icmp eq i64 %5, 3
  br i1 %6, label %7, label %8

7:                                                ; preds = %1
  store i32 1, ptr %2, align 4
  br label %9

8:                                                ; preds = %1
  store i32 0, ptr %2, align 4
  br label %9

9:                                                ; preds = %8, %7
  %10 = load i32, ptr %2, align 4
  ret i32 %10
}

; Function Attrs: inlinehint nounwind sspstrong uwtable
define internal i32 @VM_BH_ISEQ_BLOCK_P(i64 noundef %0) #3 {
  %2 = alloca i32, align 4
  %3 = alloca i64, align 8
  store i64 %0, ptr %3, align 8, !tbaa !7
  %4 = load i64, ptr %3, align 8, !tbaa !7
  %5 = and i64 %4, 3
  %6 = icmp eq i64 %5, 1
  br i1 %6, label %7, label %8

7:                                                ; preds = %1
  store i32 1, ptr %2, align 4
  br label %9

8:                                                ; preds = %1
  store i32 0, ptr %2, align 4
  br label %9

9:                                                ; preds = %8, %7
  %10 = load i32, ptr %2, align 4
  ret i32 %10
}

; Function Attrs: inlinehint nounwind sspstrong uwtable
define internal i64 @VM_BH_TO_PROC(i64 noundef %0) #3 {
  %2 = alloca i64, align 8
  store i64 %0, ptr %2, align 8, !tbaa !7
  %3 = load i64, ptr %2, align 8, !tbaa !7
  ret i64 %3
}

; Function Attrs: inlinehint nounwind sspstrong uwtable
define internal i64 @VM_BH_TO_SYMBOL(i64 noundef %0) #3 {
  %2 = alloca i64, align 8
  store i64 %0, ptr %2, align 8, !tbaa !7
  %3 = load i64, ptr %2, align 8, !tbaa !7
  ret i64 %3
}

; Function Attrs: inlinehint nounwind sspstrong uwtable
define internal ptr @VM_BH_TO_IFUNC_BLOCK(i64 noundef %0) #3 {
  %2 = alloca i64, align 8
  %3 = alloca ptr, align 8
  store i64 %0, ptr %2, align 8, !tbaa !7
  call void @llvm.lifetime.start.p0(i64 8, ptr %3) #25
  %4 = load i64, ptr %2, align 8, !tbaa !7
  %5 = and i64 %4, -4
  %6 = inttoptr i64 %5 to ptr
  store ptr %6, ptr %3, align 8, !tbaa !137
  %7 = load ptr, ptr %3, align 8, !tbaa !137
  call void @llvm.lifetime.end.p0(i64 8, ptr %3) #25
  ret ptr %7
}

; Function Attrs: inlinehint nounwind sspstrong uwtable
define internal ptr @VM_BH_TO_ISEQ_BLOCK(i64 noundef %0) #3 {
  %2 = alloca i64, align 8
  %3 = alloca ptr, align 8
  store i64 %0, ptr %2, align 8, !tbaa !7
  call void @llvm.lifetime.start.p0(i64 8, ptr %3) #25
  %4 = load i64, ptr %2, align 8, !tbaa !7
  %5 = and i64 %4, -4
  %6 = inttoptr i64 %5 to ptr
  store ptr %6, ptr %3, align 8, !tbaa !137
  %7 = load ptr, ptr %3, align 8, !tbaa !137
  call void @llvm.lifetime.end.p0(i64 8, ptr %3) #25
  ret ptr %7
}

; Function Attrs: inlinehint nounwind sspstrong uwtable
define internal i32 @vm_block_handler_type(i64 noundef %0) #3 {
  %2 = alloca i32, align 4
  %3 = alloca i64, align 8
  store i64 %0, ptr %3, align 8, !tbaa !7
  %4 = load i64, ptr %3, align 8, !tbaa !7
  %5 = call i32 @VM_BH_ISEQ_BLOCK_P(i64 noundef %4)
  %6 = icmp ne i32 %5, 0
  br i1 %6, label %7, label %8

7:                                                ; preds = %1
  store i32 0, ptr %2, align 4
  br label %18

8:                                                ; preds = %1
  %9 = load i64, ptr %3, align 8, !tbaa !7
  %10 = call i32 @VM_BH_IFUNC_P(i64 noundef %9)
  %11 = icmp ne i32 %10, 0
  br i1 %11, label %12, label %13

12:                                               ; preds = %8
  store i32 1, ptr %2, align 4
  br label %18

13:                                               ; preds = %8
  %14 = load i64, ptr %3, align 8, !tbaa !7
  %15 = call zeroext i1 @RB_SYMBOL_P(i64 noundef %14) #28
  br i1 %15, label %16, label %17

16:                                               ; preds = %13
  store i32 2, ptr %2, align 4
  br label %18

17:                                               ; preds = %13
  store i32 3, ptr %2, align 4
  br label %18

18:                                               ; preds = %17, %16, %12, %7
  %19 = load i32, ptr %2, align 4
  ret i32 %19
}

; Function Attrs: inlinehint nounwind sspstrong uwtable
define internal i32 @vm_block_type(ptr noundef %0) #3 {
  %2 = alloca ptr, align 8
  store ptr %0, ptr %2, align 8, !tbaa !48
  %3 = load ptr, ptr %2, align 8, !tbaa !48
  %4 = getelementptr inbounds nuw %struct.rb_block, ptr %3, i32 0, i32 1
  %5 = load i32, ptr %4, align 8, !tbaa !55
  ret i32 %5
}

; Function Attrs: nounwind sspstrong uwtable
define internal void @block_setup(ptr noundef %0, i64 noundef %1) #0 {
  %3 = alloca ptr, align 8
  %4 = alloca i64, align 8
  store ptr %0, ptr %3, align 8, !tbaa !48
  store i64 %1, ptr %4, align 8, !tbaa !7
  %5 = load i64, ptr %4, align 8, !tbaa !7
  %6 = call i32 @vm_block_handler_type(i64 noundef %5)
  switch i32 %6, label %35 [
    i32 0, label %7
    i32 1, label %14
    i32 2, label %21
    i32 3, label %28
  ]

7:                                                ; preds = %2
  %8 = load ptr, ptr %3, align 8, !tbaa !48
  %9 = getelementptr inbounds nuw %struct.rb_block, ptr %8, i32 0, i32 1
  store i32 0, ptr %9, align 8, !tbaa !55
  %10 = load ptr, ptr %3, align 8, !tbaa !48
  %11 = getelementptr inbounds nuw %struct.rb_block, ptr %10, i32 0, i32 0
  %12 = load i64, ptr %4, align 8, !tbaa !7
  %13 = call ptr @VM_BH_TO_ISEQ_BLOCK(i64 noundef %12)
  call void @llvm.memcpy.p0.p0.i64(ptr align 8 %11, ptr align 8 %13, i64 24, i1 false), !tbaa.struct !57
  br label %35

14:                                               ; preds = %2
  %15 = load ptr, ptr %3, align 8, !tbaa !48
  %16 = getelementptr inbounds nuw %struct.rb_block, ptr %15, i32 0, i32 1
  store i32 1, ptr %16, align 8, !tbaa !55
  %17 = load ptr, ptr %3, align 8, !tbaa !48
  %18 = getelementptr inbounds nuw %struct.rb_block, ptr %17, i32 0, i32 0
  %19 = load i64, ptr %4, align 8, !tbaa !7
  %20 = call ptr @VM_BH_TO_IFUNC_BLOCK(i64 noundef %19)
  call void @llvm.memcpy.p0.p0.i64(ptr align 8 %18, ptr align 8 %20, i64 24, i1 false), !tbaa.struct !57
  br label %35

21:                                               ; preds = %2
  %22 = load ptr, ptr %3, align 8, !tbaa !48
  %23 = getelementptr inbounds nuw %struct.rb_block, ptr %22, i32 0, i32 1
  store i32 2, ptr %23, align 8, !tbaa !55
  %24 = load i64, ptr %4, align 8, !tbaa !7
  %25 = call i64 @VM_BH_TO_SYMBOL(i64 noundef %24)
  %26 = load ptr, ptr %3, align 8, !tbaa !48
  %27 = getelementptr inbounds nuw %struct.rb_block, ptr %26, i32 0, i32 0
  store i64 %25, ptr %27, align 8, !tbaa !34
  br label %35

28:                                               ; preds = %2
  %29 = load ptr, ptr %3, align 8, !tbaa !48
  %30 = getelementptr inbounds nuw %struct.rb_block, ptr %29, i32 0, i32 1
  store i32 3, ptr %30, align 8, !tbaa !55
  %31 = load i64, ptr %4, align 8, !tbaa !7
  %32 = call i64 @VM_BH_TO_PROC(i64 noundef %31)
  %33 = load ptr, ptr %3, align 8, !tbaa !48
  %34 = getelementptr inbounds nuw %struct.rb_block, ptr %33, i32 0, i32 0
  store i64 %32, ptr %34, align 8, !tbaa !34
  br label %35

35:                                               ; preds = %28, %2, %21, %14, %7
  ret void
}

; Function Attrs: inlinehint nounwind sspstrong uwtable
define internal ptr @rb_current_execution_context(i1 noundef zeroext %0) #3 {
  %2 = alloca i8, align 1
  %3 = alloca ptr, align 8
  %4 = zext i1 %0 to i8
  store i8 %4, ptr %2, align 1, !tbaa !32
  call void @llvm.lifetime.start.p0(i64 8, ptr %3) #25
  %5 = call align 8 ptr @llvm.threadlocal.address.p0(ptr align 8 @ruby_current_ec)
  %6 = load ptr, ptr %5, align 8, !tbaa !19
  store ptr %6, ptr %3, align 8, !tbaa !19
  %7 = load ptr, ptr %3, align 8, !tbaa !19
  call void @llvm.lifetime.end.p0(i64 8, ptr %3) #25
  ret ptr %7
}

; Function Attrs: nounwind sspstrong uwtable
define hidden i32 @rb_block_pair_yield_optimizable() #0 {
  %1 = alloca i32, align 4
  %2 = alloca i32, align 4
  %3 = alloca i32, align 4
  %4 = alloca ptr, align 8
  %5 = alloca ptr, align 8
  %6 = alloca i64, align 8
  %7 = alloca %struct.rb_block, align 8
  %8 = alloca i32, align 4
  %9 = alloca i64, align 8
  %10 = alloca ptr, align 8
  %11 = alloca ptr, align 8
  call void @llvm.lifetime.start.p0(i64 4, ptr %2) #25
  call void @llvm.lifetime.start.p0(i64 4, ptr %3) #25
  call void @llvm.lifetime.start.p0(i64 8, ptr %4) #25
  %12 = call ptr @rb_current_execution_context(i1 noundef zeroext true)
  store ptr %12, ptr %4, align 8, !tbaa !19
  call void @llvm.lifetime.start.p0(i64 8, ptr %5) #25
  %13 = load ptr, ptr %4, align 8, !tbaa !19
  %14 = getelementptr inbounds nuw %struct.rb_execution_context_struct, ptr %13, i32 0, i32 2
  %15 = load ptr, ptr %14, align 8, !tbaa !21
  store ptr %15, ptr %5, align 8, !tbaa !44
  call void @llvm.lifetime.start.p0(i64 8, ptr %6) #25
  %16 = load ptr, ptr %5, align 8, !tbaa !44
  %17 = call i64 @rb_vm_frame_block_handler(ptr noundef %16)
  store i64 %17, ptr %6, align 8, !tbaa !7
  call void @llvm.lifetime.start.p0(i64 32, ptr %7) #25
  %18 = load i64, ptr %6, align 8, !tbaa !7
  %19 = icmp eq i64 %18, 0
  br i1 %19, label %20, label %22

20:                                               ; preds = %0
  %21 = load i64, ptr @rb_eArgError, align 8, !tbaa !7
  call void (i64, ptr, ...) @rb_raise(i64 noundef %21, ptr noundef @.str.3) #27
  unreachable

22:                                               ; preds = %0
  %23 = load i64, ptr %6, align 8, !tbaa !7
  call void @block_setup(ptr noundef %7, i64 noundef %23)
  %24 = call i32 @rb_vm_block_min_max_arity(ptr noundef %7, ptr noundef %3)
  store i32 %24, ptr %2, align 4, !tbaa !36
  %25 = call i32 @vm_block_type(ptr noundef %7)
  switch i32 %25, label %65 [
    i32 2, label %26
    i32 3, label %27
    i32 1, label %51
  ]

26:                                               ; preds = %22
  store i32 0, ptr %1, align 4
  store i32 1, ptr %8, align 4
  br label %69

27:                                               ; preds = %22
  call void @llvm.lifetime.start.p0(i64 8, ptr %9) #25
  %28 = load i64, ptr %6, align 8, !tbaa !7
  store i64 %28, ptr %9, align 8, !tbaa !7
  call void @llvm.lifetime.start.p0(i64 8, ptr %10) #25
  %29 = load i64, ptr %9, align 8, !tbaa !7
  %30 = inttoptr i64 %29 to ptr
  %31 = getelementptr inbounds nuw %struct.RData, ptr %30, i32 0, i32 3
  %32 = load ptr, ptr %31, align 8, !tbaa !17
  store ptr %32, ptr %10, align 8, !tbaa !11
  %33 = load ptr, ptr %10, align 8, !tbaa !11
  %34 = getelementptr inbounds nuw %struct.rb_proc_t, ptr %33, i32 0, i32 1
  %35 = load i8, ptr %34, align 8
  %36 = lshr i8 %35, 1
  %37 = and i8 %36, 1
  %38 = zext i8 %37 to i32
  %39 = icmp ne i32 %38, 0
  br i1 %39, label %40, label %41

40:                                               ; preds = %27
  store i32 0, ptr %1, align 4
  store i32 1, ptr %8, align 4
  br label %50

41:                                               ; preds = %27
  %42 = load i32, ptr %2, align 4, !tbaa !36
  %43 = load i32, ptr %3, align 4, !tbaa !36
  %44 = icmp ne i32 %42, %43
  br i1 %44, label %45, label %46

45:                                               ; preds = %41
  store i32 0, ptr %1, align 4
  store i32 1, ptr %8, align 4
  br label %50

46:                                               ; preds = %41
  %47 = load i32, ptr %2, align 4, !tbaa !36
  %48 = icmp sgt i32 %47, 1
  %49 = zext i1 %48 to i32
  store i32 %49, ptr %1, align 4
  store i32 1, ptr %8, align 4
  br label %50

50:                                               ; preds = %46, %45, %40
  call void @llvm.lifetime.end.p0(i64 8, ptr %10) #25
  call void @llvm.lifetime.end.p0(i64 8, ptr %9) #25
  br label %69

51:                                               ; preds = %22
  call void @llvm.lifetime.start.p0(i64 8, ptr %11) #25
  %52 = getelementptr inbounds nuw %struct.rb_block, ptr %7, i32 0, i32 0
  %53 = getelementptr inbounds nuw %struct.rb_captured_block, ptr %52, i32 0, i32 2
  %54 = load ptr, ptr %53, align 8, !tbaa !34
  store ptr %54, ptr %11, align 8, !tbaa !37
  %55 = load ptr, ptr %11, align 8, !tbaa !37
  %56 = getelementptr inbounds nuw %struct.vm_ifunc, ptr %55, i32 0, i32 0
  %57 = load i64, ptr %56, align 8, !tbaa !54
  %58 = and i64 %57, 65536
  %59 = icmp ne i64 %58, 0
  br i1 %59, label %60, label %61

60:                                               ; preds = %51
  store i32 1, ptr %1, align 4
  store i32 1, ptr %8, align 4
  br label %62

61:                                               ; preds = %51
  store i32 0, ptr %8, align 4
  br label %62

62:                                               ; preds = %61, %60
  call void @llvm.lifetime.end.p0(i64 8, ptr %11) #25
  %63 = load i32, ptr %8, align 4
  switch i32 %63, label %69 [
    i32 0, label %64
  ]

64:                                               ; preds = %62
  br label %65

65:                                               ; preds = %22, %64
  %66 = load i32, ptr %2, align 4, !tbaa !36
  %67 = icmp sgt i32 %66, 1
  %68 = zext i1 %67 to i32
  store i32 %68, ptr %1, align 4
  store i32 1, ptr %8, align 4
  br label %69

69:                                               ; preds = %65, %62, %50, %26
  call void @llvm.lifetime.end.p0(i64 32, ptr %7) #25
  call void @llvm.lifetime.end.p0(i64 8, ptr %6) #25
  call void @llvm.lifetime.end.p0(i64 8, ptr %5) #25
  call void @llvm.lifetime.end.p0(i64 8, ptr %4) #25
  call void @llvm.lifetime.end.p0(i64 4, ptr %3) #25
  call void @llvm.lifetime.end.p0(i64 4, ptr %2) #25
  %70 = load i32, ptr %1, align 4
  ret i32 %70
}