; Function Attrs: nounwind sspstrong uwtable
define hidden range(i32 0, 2) i32 @rb_block_pair_yield_optimizable() local_unnamed_addr #0 {
  %1 = alloca i32, align 4
  %2 = alloca %struct.rb_block, align 8
  call void @llvm.lifetime.start.p0(i64 4, ptr nonnull %1) #21
  %3 = tail call align 8 ptr @llvm.threadlocal.address.p0(ptr align 8 @ruby_current_ec)
  %4 = load ptr, ptr %3, align 8, !tbaa !20
  %5 = getelementptr inbounds nuw i8, ptr %4, i64 16
  %6 = load ptr, ptr %5, align 8, !tbaa !22
  %7 = tail call i64 @rb_vm_frame_block_handler(ptr noundef %6) #21
  call void @llvm.lifetime.start.p0(i64 32, ptr nonnull %2) #21
  %8 = icmp eq i64 %7, 0
  br i1 %8, label %9, label %11

9:                                                ; preds = %0
  %10 = load i64, ptr @rb_eArgError, align 8, !tbaa !36
  tail call void (i64, ptr, ...) @rb_raise(i64 noundef %10, ptr noundef nonnull @.str.3) #22
  unreachable

11:                                               ; preds = %0
  %12 = and i64 %7, 3
  switch i64 %12, label %13 [
    i64 1, label %block_setup.exit.thread
    i64 3, label %40
  ]

13:                                               ; preds = %11
  %14 = and i64 %7, 255
  %15 = icmp eq i64 %14, 12
  br i1 %15, label %block_setup.exit.thread19, label %16

16:                                               ; preds = %13
  %17 = and i64 %7, 7
  %.not10.i.i = icmp eq i64 %17, 0
  br i1 %.not10.i.i, label %RB_SYMBOL_P.exit.i.i, label %28

RB_SYMBOL_P.exit.i.i:                             ; preds = %16
  %18 = inttoptr i64 %7 to ptr
  %19 = load i64, ptr %18, align 8, !tbaa !42
  %.fr11.i.i = freeze i64 %19
  %20 = and i64 %.fr11.i.i, 31
  %21 = icmp eq i64 %20, 20
  br i1 %21, label %block_setup.exit.thread19, label %28

block_setup.exit.thread:                          ; preds = %11
  %22 = getelementptr inbounds nuw i8, ptr %2, i64 24
  store i32 0, ptr %22, align 8, !tbaa !14
  %23 = and i64 %7, -4
  %24 = inttoptr i64 %23 to ptr
  call void @llvm.memcpy.p0.p0.i64(ptr noundef nonnull align 8 dereferenceable(24) %2, ptr noundef nonnull align 8 dereferenceable(24) %24, i64 24, i1 false), !tbaa.struct !82
  %25 = call fastcc i32 @rb_vm_block_min_max_arity(ptr noundef nonnull %2, ptr noundef nonnull %1)
  br label %49

block_setup.exit.thread19:                        ; preds = %13, %RB_SYMBOL_P.exit.i.i
  %26 = getelementptr inbounds nuw i8, ptr %2, i64 24
  store i32 2, ptr %26, align 8, !tbaa !14
  store i64 %7, ptr %2, align 8, !tbaa !35
  %27 = call fastcc i32 @rb_vm_block_min_max_arity(ptr noundef nonnull %2, ptr noundef nonnull %1)
  br label %52

28:                                               ; preds = %16, %RB_SYMBOL_P.exit.i.i
  %29 = getelementptr inbounds nuw i8, ptr %2, i64 24
  store i32 3, ptr %29, align 8, !tbaa !14
  store i64 %7, ptr %2, align 8, !tbaa !35
  %30 = call fastcc i32 @rb_vm_block_min_max_arity(ptr noundef nonnull %2, ptr noundef nonnull %1)
  %31 = inttoptr i64 %7 to ptr
  %32 = getelementptr inbounds nuw i8, ptr %31, i64 32
  %33 = load ptr, ptr %32, align 8, !tbaa !7
  %34 = getelementptr inbounds nuw i8, ptr %33, i64 32
  %35 = load i8, ptr %34, align 8
  %36 = and i8 %35, 2
  %.not15 = icmp eq i8 %36, 0
  %37 = load i32, ptr %1, align 4
  %.not16 = icmp eq i32 %30, %37
  %38 = icmp sgt i32 %30, 1
  %39 = and i1 %.not16, %38
  %spec.select = select i1 %.not15, i1 %39, i1 false
  br label %52

40:                                               ; preds = %11
  %41 = getelementptr inbounds nuw i8, ptr %2, i64 24
  store i32 1, ptr %41, align 8, !tbaa !14
  %42 = and i64 %7, -4
  %43 = inttoptr i64 %42 to ptr
  call void @llvm.memcpy.p0.p0.i64(ptr noundef nonnull align 8 dereferenceable(24) %2, ptr noundef nonnull align 8 dereferenceable(24) %43, i64 24, i1 false), !tbaa.struct !82
  %44 = call fastcc i32 @rb_vm_block_min_max_arity(ptr noundef nonnull %2, ptr noundef nonnull %1)
  %45 = getelementptr inbounds nuw i8, ptr %2, i64 16
  %46 = load ptr, ptr %45, align 8, !tbaa !35
  %47 = load i64, ptr %46, align 8, !tbaa !83
  %48 = and i64 %47, 65536
  %.not = icmp eq i64 %48, 0
  br i1 %.not, label %49, label %52

49:                                               ; preds = %block_setup.exit.thread, %40
  %50 = phi i32 [ %25, %block_setup.exit.thread ], [ %44, %40 ]
  %51 = icmp sgt i32 %50, 1
  br label %52

52:                                               ; preds = %block_setup.exit.thread19, %28, %40, %49
  %.0.shrunk = phi i1 [ %51, %49 ], [ true, %40 ], [ %spec.select, %28 ], [ false, %block_setup.exit.thread19 ]
  %.0 = zext i1 %.0.shrunk to i32
  call void @llvm.lifetime.end.p0(i64 32, ptr nonnull %2) #21
  call void @llvm.lifetime.end.p0(i64 4, ptr nonnull %1) #21
  ret i32 %.0
}